ccopy_reg
_reconstructor
p1
(cpsychopy.data
ExperimentHandler
p2
c__builtin__
object
p3
NtRp4
(dp5
S'originPath'
p6
V/Users/lpzjwp/Dropbox/workshops/examples2018/builder/customRDK/customRDK.psyexp
p7
sS'dataFileName'
p8
V/Users/lpzjwp/Dropbox/workshops/examples2018/builder/customRDK/data/S01_customRDK_2018_Jan_21_2106
p9
sS'runtimeInfo'
p10
NsS'name'
p11
VcustomRDK
p12
sS'dataNames'
p13
(lp14
S'corrAns'
p15
aS'direction'
p16
aS'trials.response'
p17
aS'resp.rt'
p18
asS'autoLog'
p19
I01
sS'extraInfo'
p20
(dp21
S'date'
p22
V2018_Jan_21_2106
p23
sS'frameRate'
p24
cnumpy.core.multiarray
scalar
p25
(cnumpy
dtype
p26
(S'f8'
I0
I1
tRp27
(I3
S'<'
NNNI-1
I-1
I0
tbS'\x1e\x8d\xdb4 \xceM@'
tRp28
sS'expName'
p29
g12
sS'session'
p30
S'001'
p31
sS'participant'
p32
VS01
p33
ssS'loopsUnfinished'
p34
(lp35
g1
(cpsychopy.data
StairHandler
p36
g3
NtRp37
(dp38
S'origin'
p39
NsS'nDown'
p40
I3
sS'_exp'
p41
I4611688848
sS'reversalIntensities'
p42
(lp43
F0.031547867224009658
aF0.31547867224009668
aF0.12559432157547901
aF0.15811388300841897
aF0.099763115748443973
aF0.12559432157547901
aF0.06294627058970835
aF0.099763115748443987
asS'stepSizes'
p44
(lp45
F0.40000000000000002
aF0.20000000000000001
aF0.20000000000000001
aF0.10000000000000001
asS'nUp'
p46
I1
sS'startVal'
p47
F0.5
sS'_nextIntensity'
p48
F0.06294627058970835
sg19
I01
sS'method'
p49
S'2AFC'
p50
sS'maxVal'
p51
I1
sS'stepSizeCurrent'
p52
F0.10000000000000001
sS'correctCounter'
p53
I0
sS'nReversals'
p54
I4
sS'minVal'
p55
I0
sS'otherData'
p56
(dp57
g18
(lp58
F0.65807485580444336
aF0.66814398765563965
aF0.70277094841003418
aF0.68820309638977051
aF0.72385311126708984
aF0.76835107803344727
aF0.75454115867614746
aF1.0027940273284912
aF0.85759806632995605
aF0.75651693344116211
aF1.0045671463012695
aF0.68790292739868164
aF0.73854589462280273
aF0.71619009971618652
aF0.88727807998657227
aF0.72054696083068848
aF0.76785683631896973
aF0.97050881385803223
aF0.7542870044708252
aF0.85186505317687988
aF0.78734803199768066
aF0.83751392364501953
aF1.1375019550323486
aF0.90233802795410156
aF0.88595890998840332
aF0.80404901504516602
aF0.88487100601196289
aF0.88520908355712891
aF0.72030997276306152
aF0.80388689041137695
aF0.81840991973876953
aF0.7869410514831543
aF0.62505292892456055
aF0.75742483139038086
aF0.77020692825317383
aF0.75166606903076172
aF0.80341482162475586
aF1.1533980369567871
aF1.1205251216888428
aF0.7032768726348877
aF0.78789615631103516
aF0.55511593818664551
aF0.98737692832946777
aF0.80577397346496582
aF0.60397887229919434
assS'finished'
p59
I00
sS'stepType'
p60
S'log'
p61
sS'data'
p62
(lp63
I1
aI1
aI1
aI0
aI1
aI0
aI0
aI0
aI1
aI1
aI0
aI1
aI1
aI1
aI1
aI1
aI1
aI0
aI1
aI1
aI1
aI1
aI1
aI1
aI1
aI1
aI0
aI1
aI1
aI1
aI1
aI1
aI1
aI1
aI1
aI1
aI1
aI0
aI0
aI1
aI1
aI1
aI1
aI1
aI1
asS'reversalPoints'
p64
(lp65
I3
aI13
aI17
aI20
aI26
aI29
aI37
aI41
asg6
I-1
sg11
S'trials'
p66
sg20
g21
sS'currentDirection'
p67
S'down'
p68
sS'_variableStep'
p69
I01
sS'intensities'
p70
(lp71
F0.5
aF0.19905358527674863
aF0.079244659623055672
aF0.031547867224009658
aF0.049999999999999996
aF0.049999999999999996
aF0.079244659623055672
aF0.12559432157547901
aF0.19905358527674863
aF0.19905358527674863
aF0.19905358527674863
aF0.31547867224009668
aF0.31547867224009668
aF0.31547867224009668
aF0.19905358527674866
aF0.19905358527674866
aF0.19905358527674866
aF0.12559432157547901
aF0.15811388300841897
aF0.15811388300841897
aF0.15811388300841897
aF0.12559432157547901
aF0.12559432157547901
aF0.12559432157547901
aF0.099763115748443973
aF0.099763115748443973
aF0.099763115748443973
aF0.12559432157547901
aF0.12559432157547901
aF0.12559432157547901
aF0.099763115748443973
aF0.099763115748443973
aF0.099763115748443973
aF0.079244659623055658
aF0.079244659623055658
aF0.079244659623055658
aF0.06294627058970835
aF0.06294627058970835
aF0.079244659623055672
aF0.099763115748443987
aF0.099763115748443987
aF0.099763115748443987
aF0.079244659623055672
aF0.079244659623055672
aF0.079244659623055672
aF0.06294627058970835
asS'initialRule'
p72
I0
sS'nTrials'
p73
I50
sS'thisTrialN'
p74
I45
sbasS'saveWideText'
p75
I00
sS'thisEntry'
p76
(dp77
g16
I90
sg15
S'up'
p78
ssS'version'
p79
S''
sS'_paramNamesSoFar'
p80
(lp81
sS'entries'
p82
(lp83
(dp84
g30
g31
sg16
I90
sg32
g33
sS'trials.stepSize'
p85
F0.40000000000000002
sg24
g28
sg29
g12
sS'trials.thisTrialN'
p86
I0
sg15
g78
sg17
I1
sg22
g23
sS'trials.intensity'
p87
F0.5
sg18
F0.65807485580444336
sa(dp88
g30
g31
sg16
I90
sg32
g33
sS'trials.stepSize'
p89
F0.40000000000000002
sg24
g28
sg29
g12
sS'trials.thisTrialN'
p90
I1
sg15
g78
sS'trials.response'
p91
I1
sg22
g23
sS'trials.intensity'
p92
F0.19905358527674863
sg18
F0.66814398765563965
sa(dp93
g30
g31
sg16
I-90
sg32
g33
sS'trials.stepSize'
p94
F0.40000000000000002
sg24
g28
sg29
g12
sS'trials.thisTrialN'
p95
I2
sg15
g68
sS'trials.response'
p96
I1
sg22
g23
sS'trials.intensity'
p97
F0.079244659623055672
sg18
F0.70277094841003418
sa(dp98
g30
g31
sg16
I-90
sg32
g33
sS'trials.stepSize'
p99
F0.20000000000000001
sg24
g28
sg29
g12
sS'trials.thisTrialN'
p100
I3
sg15
g68
sS'trials.response'
p101
I0
sg22
g23
sS'trials.intensity'
p102
F0.031547867224009658
sg18
F0.68820309638977051
sa(dp103
g30
g31
sg16
I90
sg32
g33
sS'trials.stepSize'
p104
F0.20000000000000001
sg24
g28
sg29
g12
sS'trials.thisTrialN'
p105
I4
sg15
g78
sS'trials.response'
p106
I1
sg22
g23
sS'trials.intensity'
p107
F0.049999999999999996
sg18
F0.72385311126708984
sa(dp108
g30
g31
sg16
I-90
sg32
g33
sS'trials.stepSize'
p109
F0.20000000000000001
sg24
g28
sg29
g12
sS'trials.thisTrialN'
p110
I5
sg15
g68
sS'trials.response'
p111
I0
sg22
g23
sS'trials.intensity'
p112
F0.049999999999999996
sg18
F0.76835107803344727
sa(dp113
g30
g31
sg16
I-90
sg32
g33
sS'trials.stepSize'
p114
F0.20000000000000001
sg24
g28
sg29
g12
sS'trials.thisTrialN'
p115
I6
sg15
g68
sS'trials.response'
p116
I0
sg22
g23
sS'trials.intensity'
p117
F0.079244659623055672
sg18
F0.75454115867614746
sa(dp118
g30
g31
sg16
I-90
sg32
g33
sS'trials.stepSize'
p119
F0.20000000000000001
sg24
g28
sg29
g12
sS'trials.thisTrialN'
p120
I7
sg15
g68
sS'trials.response'
p121
I0
sg22
g23
sS'trials.intensity'
p122
F0.12559432157547901
sg18
F1.0027940273284912
sa(dp123
g30
g31
sg16
I90
sg32
g33
sS'trials.stepSize'
p124
F0.20000000000000001
sg24
g28
sg29
g12
sS'trials.thisTrialN'
p125
I8
sg15
g78
sS'trials.response'
p126
I1
sg22
g23
sS'trials.intensity'
p127
F0.19905358527674863
sg18
F0.85759806632995605
sa(dp128
g30
g31
sg16
I-90
sg32
g33
sS'trials.stepSize'
p129
F0.20000000000000001
sg24
g28
sg29
g12
sS'trials.thisTrialN'
p130
I9
sg15
g68
sS'trials.response'
p131
I1
sg22
g23
sS'trials.intensity'
p132
F0.19905358527674863
sg18
F0.75651693344116211
sa(dp133
g30
g31
sg16
I-90
sg32
g33
sS'trials.stepSize'
p134
F0.20000000000000001
sg24
g28
sg29
g12
sS'trials.thisTrialN'
p135
I10
sg15
g68
sS'trials.response'
p136
I0
sg22
g23
sS'trials.intensity'
p137
F0.19905358527674863
sg18
F1.0045671463012695
sa(dp138
g30
g31
sg16
I-90
sg32
g33
sS'trials.stepSize'
p139
F0.20000000000000001
sg24
g28
sg29
g12
sS'trials.thisTrialN'
p140
I11
sg15
g68
sS'trials.response'
p141
I1
sg22
g23
sS'trials.intensity'
p142
F0.31547867224009668
sg18
F0.68790292739868164
sa(dp143
g30
g31
sg16
I90
sg32
g33
sS'trials.stepSize'
p144
F0.20000000000000001
sg24
g28
sg29
g12
sS'trials.thisTrialN'
p145
I12
sg15
g78
sS'trials.response'
p146
I1
sg22
g23
sS'trials.intensity'
p147
F0.31547867224009668
sg18
F0.73854589462280273
sa(dp148
g30
g31
sg16
I90
sg32
g33
sS'trials.stepSize'
p149
F0.20000000000000001
sg24
g28
sg29
g12
sS'trials.thisTrialN'
p150
I13
sg15
g78
sS'trials.response'
p151
I1
sg22
g23
sS'trials.intensity'
p152
F0.31547867224009668
sg18
F0.71619009971618652
sa(dp153
g30
g31
sg16
I-90
sg32
g33
sS'trials.stepSize'
p154
F0.20000000000000001
sg24
g28
sg29
g12
sS'trials.thisTrialN'
p155
I14
sg15
g68
sS'trials.response'
p156
I1
sg22
g23
sS'trials.intensity'
p157
F0.19905358527674866
sg18
F0.88727807998657227
sa(dp158
g30
g31
sg16
I90
sg32
g33
sS'trials.stepSize'
p159
F0.20000000000000001
sg24
g28
sg29
g12
sS'trials.thisTrialN'
p160
I15
sg15
g78
sS'trials.response'
p161
I1
sg22
g23
sS'trials.intensity'
p162
F0.19905358527674866
sg18
F0.72054696083068848
sa(dp163
g30
g31
sg16
I90
sg32
g33
sS'trials.stepSize'
p164
F0.20000000000000001
sg24
g28
sg29
g12
sS'trials.thisTrialN'
p165
I16
sg15
g78
sS'trials.response'
p166
I1
sg22
g23
sS'trials.intensity'
p167
F0.19905358527674866
sg18
F0.76785683631896973
sa(dp168
g30
g31
sg16
I-90
sg32
g33
sS'trials.stepSize'
p169
F0.10000000000000001
sg24
g28
sg29
g12
sS'trials.thisTrialN'
p170
I17
sg15
g68
sS'trials.response'
p171
I0
sg22
g23
sS'trials.intensity'
p172
F0.12559432157547901
sg18
F0.97050881385803223
sa(dp173
g30
g31
sg16
I90
sg32
g33
sS'trials.stepSize'
p174
F0.10000000000000001
sg24
g28
sg29
g12
sS'trials.thisTrialN'
p175
I18
sg15
g78
sS'trials.response'
p176
I1
sg22
g23
sS'trials.intensity'
p177
F0.15811388300841897
sg18
F0.7542870044708252
sa(dp178
g30
g31
sg16
I90
sg32
g33
sS'trials.stepSize'
p179
F0.10000000000000001
sg24
g28
sg29
g12
sS'trials.thisTrialN'
p180
I19
sg15
g78
sS'trials.response'
p181
I1
sg22
g23
sS'trials.intensity'
p182
F0.15811388300841897
sg18
F0.85186505317687988
sa(dp183
g30
g31
sg16
I90
sg32
g33
sS'trials.stepSize'
p184
F0.10000000000000001
sg24
g28
sg29
g12
sS'trials.thisTrialN'
p185
I20
sg15
g78
sS'trials.response'
p186
I1
sg22
g23
sS'trials.intensity'
p187
F0.15811388300841897
sg18
F0.78734803199768066
sa(dp188
g30
g31
sg16
I90
sg32
g33
sS'trials.stepSize'
p189
F0.10000000000000001
sg24
g28
sg29
g12
sS'trials.thisTrialN'
p190
I21
sg15
g78
sS'trials.response'
p191
I1
sg22
g23
sS'trials.intensity'
p192
F0.12559432157547901
sg18
F0.83751392364501953
sa(dp193
g30
g31
sg16
I-90
sg32
g33
sS'trials.stepSize'
p194
F0.10000000000000001
sg24
g28
sg29
g12
sS'trials.thisTrialN'
p195
I22
sg15
g68
sS'trials.response'
p196
I1
sg22
g23
sS'trials.intensity'
p197
F0.12559432157547901
sg18
F1.1375019550323486
sa(dp198
g30
g31
sg16
I90
sg32
g33
sS'trials.stepSize'
p199
F0.10000000000000001
sg24
g28
sg29
g12
sS'trials.thisTrialN'
p200
I23
sg15
g78
sS'trials.response'
p201
I1
sg22
g23
sS'trials.intensity'
p202
F0.12559432157547901
sg18
F0.90233802795410156
sa(dp203
g30
g31
sg16
I-90
sg32
g33
sS'trials.stepSize'
p204
F0.10000000000000001
sg24
g28
sg29
g12
sS'trials.thisTrialN'
p205
I24
sg15
g68
sS'trials.response'
p206
I1
sg22
g23
sS'trials.intensity'
p207
F0.099763115748443973
sg18
F0.88595890998840332
sa(dp208
g30
g31
sg16
I-90
sg32
g33
sS'trials.stepSize'
p209
F0.10000000000000001
sg24
g28
sg29
g12
sS'trials.thisTrialN'
p210
I25
sg15
g68
sS'trials.response'
p211
I1
sg22
g23
sS'trials.intensity'
p212
F0.099763115748443973
sg18
F0.80404901504516602
sa(dp213
g30
g31
sg16
I-90
sg32
g33
sS'trials.stepSize'
p214
F0.10000000000000001
sg24
g28
sg29
g12
sS'trials.thisTrialN'
p215
I26
sg15
g68
sS'trials.response'
p216
I0
sg22
g23
sS'trials.intensity'
p217
F0.099763115748443973
sg18
F0.88487100601196289
sa(dp218
g30
g31
sg16
I90
sg32
g33
sS'trials.stepSize'
p219
F0.10000000000000001
sg24
g28
sg29
g12
sS'trials.thisTrialN'
p220
I27
sg15
g78
sS'trials.response'
p221
I1
sg22
g23
sS'trials.intensity'
p222
F0.12559432157547901
sg18
F0.88520908355712891
sa(dp223
g30
g31
sg16
I-90
sg32
g33
sS'trials.stepSize'
p224
F0.10000000000000001
sg24
g28
sg29
g12
sS'trials.thisTrialN'
p225
I28
sg15
g68
sS'trials.response'
p226
I1
sg22
g23
sS'trials.intensity'
p227
F0.12559432157547901
sg18
F0.72030997276306152
sa(dp228
g30
g31
sg16
I-90
sg32
g33
sS'trials.stepSize'
p229
F0.10000000000000001
sg24
g28
sg29
g12
sS'trials.thisTrialN'
p230
I29
sg15
g68
sS'trials.response'
p231
I1
sg22
g23
sS'trials.intensity'
p232
F0.12559432157547901
sg18
F0.80388689041137695
sa(dp233
g30
g31
sg16
I-90
sg32
g33
sS'trials.stepSize'
p234
F0.10000000000000001
sg24
g28
sg29
g12
sS'trials.thisTrialN'
p235
I30
sg15
g68
sS'trials.response'
p236
I1
sg22
g23
sS'trials.intensity'
p237
F0.099763115748443973
sg18
F0.81840991973876953
sa(dp238
g30
g31
sg16
I90
sg32
g33
sS'trials.stepSize'
p239
F0.10000000000000001
sg24
g28
sg29
g12
sS'trials.thisTrialN'
p240
I31
sg15
g78
sS'trials.response'
p241
I1
sg22
g23
sS'trials.intensity'
p242
F0.099763115748443973
sg18
F0.7869410514831543
sa(dp243
g30
g31
sg16
I90
sg32
g33
sS'trials.stepSize'
p244
F0.10000000000000001
sg24
g28
sg29
g12
sS'trials.thisTrialN'
p245
I32
sg15
g78
sS'trials.response'
p246
I1
sg22
g23
sS'trials.intensity'
p247
F0.099763115748443973
sg18
F0.62505292892456055
sa(dp248
g30
g31
sg16
I-90
sg32
g33
sS'trials.stepSize'
p249
F0.10000000000000001
sg24
g28
sg29
g12
sS'trials.thisTrialN'
p250
I33
sg15
g68
sS'trials.response'
p251
I1
sg22
g23
sS'trials.intensity'
p252
F0.079244659623055658
sg18
F0.75742483139038086
sa(dp253
g30
g31
sg16
I90
sg32
g33
sS'trials.stepSize'
p254
F0.10000000000000001
sg24
g28
sg29
g12
sS'trials.thisTrialN'
p255
I34
sg15
g78
sS'trials.response'
p256
I1
sg22
g23
sS'trials.intensity'
p257
F0.079244659623055658
sg18
F0.77020692825317383
sa(dp258
g30
g31
sg16
I90
sg32
g33
sS'trials.stepSize'
p259
F0.10000000000000001
sg24
g28
sg29
g12
sS'trials.thisTrialN'
p260
I35
sg15
g78
sS'trials.response'
p261
I1
sg22
g23
sS'trials.intensity'
p262
F0.079244659623055658
sg18
F0.75166606903076172
sa(dp263
g30
g31
sg16
I90
sg32
g33
sS'trials.stepSize'
p264
F0.10000000000000001
sg24
g28
sg29
g12
sS'trials.thisTrialN'
p265
I36
sg15
g78
sS'trials.response'
p266
I1
sg22
g23
sS'trials.intensity'
p267
F0.06294627058970835
sg18
F0.80341482162475586
sa(dp268
g30
g31
sg16
I-90
sg32
g33
sS'trials.stepSize'
p269
F0.10000000000000001
sg24
g28
sg29
g12
sS'trials.thisTrialN'
p270
I37
sg15
g68
sS'trials.response'
p271
I0
sg22
g23
sS'trials.intensity'
p272
F0.06294627058970835
sg18
F1.1533980369567871
sa(dp273
g30
g31
sg16
I-90
sg32
g33
sS'trials.stepSize'
p274
F0.10000000000000001
sg24
g28
sg29
g12
sS'trials.thisTrialN'
p275
I38
sg15
g68
sS'trials.response'
p276
I0
sg22
g23
sS'trials.intensity'
p277
F0.079244659623055672
sg18
F1.1205251216888428
sa(dp278
g30
g31
sg16
I90
sg32
g33
sS'trials.stepSize'
p279
F0.10000000000000001
sg24
g28
sg29
g12
sS'trials.thisTrialN'
p280
I39
sg15
g78
sS'trials.response'
p281
I1
sg22
g23
sS'trials.intensity'
p282
F0.099763115748443987
sg18
F0.7032768726348877
sa(dp283
g30
g31
sg16
I90
sg32
g33
sS'trials.stepSize'
p284
F0.10000000000000001
sg24
g28
sg29
g12
sS'trials.thisTrialN'
p285
I40
sg15
g78
sS'trials.response'
p286
I1
sg22
g23
sS'trials.intensity'
p287
F0.099763115748443987
sg18
F0.78789615631103516
sa(dp288
g30
g31
sg16
I-90
sg32
g33
sS'trials.stepSize'
p289
F0.10000000000000001
sg24
g28
sg29
g12
sS'trials.thisTrialN'
p290
I41
sg15
g68
sS'trials.response'
p291
I1
sg22
g23
sS'trials.intensity'
p292
F0.099763115748443987
sg18
F0.55511593818664551
sa(dp293
g30
g31
sg16
I-90
sg32
g33
sS'trials.stepSize'
p294
F0.10000000000000001
sg24
g28
sg29
g12
sS'trials.thisTrialN'
p295
I42
sg15
g68
sS'trials.response'
p296
I1
sg22
g23
sS'trials.intensity'
p297
F0.079244659623055672
sg18
F0.98737692832946777
sa(dp298
g30
g31
sg16
I-90
sg32
g33
sS'trials.stepSize'
p299
F0.10000000000000001
sg24
g28
sg29
g12
sS'trials.thisTrialN'
p300
I43
sg15
g68
sS'trials.response'
p301
I1
sg22
g23
sS'trials.intensity'
p302
F0.079244659623055672
sg18
F0.80577397346496582
sa(dp303
g30
g31
sg16
I-90
sg32
g33
sS'trials.stepSize'
p304
F0.10000000000000001
sg24
g28
sg29
g12
sS'trials.thisTrialN'
p305
I44
sg15
g68
sS'trials.response'
p306
I1
sg22
g23
sS'trials.intensity'
p307
F0.079244659623055672
sg18
F0.60397887229919434
sasS'loops'
p308
(lp309
g37
asS'savePickle'
p310
I00
sb.